; Function Attrs: mustprogress nounwind uwtable
define dso_local noundef zeroext i1 @_ZN4llvm19NaryReassociatePass21requiresSignExtensionEPNS_5ValueEPNS_17GetElementPtrInstE(ptr noundef nonnull readonly align 8 captures(none) dereferenceable(72) %0, ptr noundef readonly captures(none) %1, ptr noundef readonly captures(none) %2) local_unnamed_addr #0 align 2 {
  %4 = getelementptr inbounds nuw i8, ptr %0, i64 8
  %5 = load ptr, ptr %4, align 8
  %6 = getelementptr inbounds nuw i8, ptr %2, i64 8
  %7 = load ptr, ptr %6, align 8
  %8 = getelementptr inbounds nuw i8, ptr %7, i64 8
  %9 = load i32, ptr %8, align 8
  %10 = and i32 %9, 255
  %11 = add nsw i32 %10, -17
  %spec.select.i.i.i = icmp ult i32 %11, 2
  br i1 %spec.select.i.i.i, label %12, label %_ZNK4llvm4Type22getPointerAddressSpaceEv.exit

12:                                               ; preds = %3
  %13 = getelementptr inbounds nuw i8, ptr %7, i64 16
  %14 = load ptr, ptr %13, align 8
  %15 = load ptr, ptr %14, align 8
  %.phi.trans.insert.i = getelementptr inbounds nuw i8, ptr %15, i64 8
  %.pre.i = load i32, ptr %.phi.trans.insert.i, align 8
  br label %_ZNK4llvm4Type22getPointerAddressSpaceEv.exit

_ZNK4llvm4Type22getPointerAddressSpaceEv.exit:    ; preds = %3, %12
  %16 = phi i32 [ %.pre.i, %12 ], [ %9, %3 ]
  %17 = lshr i32 %16, 8
  %18 = tail call noundef nonnull align 4 dereferenceable(16) ptr @_ZNK4llvm10DataLayout14getPointerSpecEj(ptr noundef nonnull align 8 dereferenceable(512) %5, i32 noundef %17) #17
  %19 = getelementptr inbounds nuw i8, ptr %18, i64 12
  %20 = load i32, ptr %19, align 4
  %21 = getelementptr inbounds nuw i8, ptr %1, i64 8
  %22 = load ptr, ptr %21, align 8
  %23 = getelementptr inbounds nuw i8, ptr %22, i64 8
  %24 = load i32, ptr %23, align 8
  %25 = lshr i32 %24, 8
  %26 = icmp ult i32 %25, %20
  ret i1 %26
}